target datalayout = "e-m:e-p270:32:32-p271:32:32-p272:64:64-i64:64-i128:128-f80:128-n8:16:32:64-S128"
target triple = "x86_64-pc-linux-gnu"

%union.EX_STYPE = type { ptr }
%struct.Exnode_s = type { i64, i64, i8, %union.anon, %union.Exdata_u, i32 }
%union.anon = type { ptr }
%union.Exdata_u = type { %struct.anon.2 }
%struct.anon.2 = type { ptr, ptr, ptr, ptr }
%struct.Expr_s = type { ptr, ptr, [10 x ptr], ptr, ptr, ptr, ptr, ptr, ptr, %struct.agxbuf, %union.EX_STYPE, %struct.Exid_s, [512 x i8], ptr, i32, i32, i32, i64, i64, i32 }
%struct.agxbuf = type { %union.anon.10 }
%union.anon.10 = type { %struct.anon.11 }
%struct.anon.11 = type { ptr, i64, i64, [7 x i8], i8 }
%struct.Exid_s = type { %struct.dtlink_s_, i64, i64, i64, i64, ptr, ptr, [32 x i8] }
%struct.dtlink_s_ = type { ptr, %union.anon.12 }
%union.anon.12 = type { ptr }
%struct.Exassoc_t = type { %struct.dtlink_s_, %union.EX_STYPE, %union.EX_STYPE, [1 x i8] }
%struct.dt_s_ = type { ptr, ptr, %struct.Dtdata_t, ptr, i32, ptr, ptr, ptr }
%struct.Dtdata_t = type { i32, ptr, %union.anon.13, i32, i32, i32 }
%union.anon.13 = type { ptr }
%struct.anon.5 = type { ptr, ptr, ptr }

@.str.21 = private unnamed_addr constant [4 x i8] c" \09\0A\00", align 1
@.str.22 = private unnamed_addr constant [1 x i8] zeroinitializer, align 1
@.str.23 = private unnamed_addr constant [21 x i8] c"out of space [assoc]\00", align 1

; Function Attrs: nounwind uwtable
define internal void @addItem(ptr noundef %0, ptr noundef %1, ptr %2, ptr noundef %3) #0 {
  %5 = alloca %union.EX_STYPE, align 8
  %6 = alloca ptr, align 8
  %7 = alloca ptr, align 8
  %8 = alloca ptr, align 8
  %9 = alloca ptr, align 8
  %10 = alloca %struct.Exassoc_t, align 8
  %11 = getelementptr inbounds nuw %union.EX_STYPE, ptr %5, i32 0, i32 0
  store ptr %2, ptr %11, align 8
  store ptr %0, ptr %6, align 8, !tbaa !3
  store ptr %1, ptr %7, align 8, !tbaa !84
  store ptr %3, ptr %8, align 8, !tbaa !42
  call void @llvm.lifetime.start.p0(i64 8, ptr %9) #15
  %12 = load ptr, ptr %7, align 8, !tbaa !84
  %13 = getelementptr inbounds nuw %struct.dt_s_, ptr %12, i32 0, i32 0
  %14 = load ptr, ptr %13, align 8, !tbaa !61
  %15 = load ptr, ptr %7, align 8, !tbaa !84
  %16 = call ptr %14(ptr noundef %15, ptr noundef %5, i32 noundef 512)
  store ptr %16, ptr %9, align 8, !tbaa !10
  %17 = icmp ne ptr %16, null
  br i1 %17, label %35, label %18

18:                                               ; preds = %4
  %19 = load ptr, ptr %6, align 8, !tbaa !3
  %20 = getelementptr inbounds nuw %struct.Expr_s, ptr %19, i32 0, i32 3
  %21 = load ptr, ptr %20, align 8, !tbaa !40
  %22 = call ptr @vmalloc(ptr noundef %21, i64 noundef 40)
  store ptr %22, ptr %9, align 8, !tbaa !10
  %23 = icmp ne ptr %22, null
  br i1 %23, label %25, label %24

24:                                               ; preds = %18
  call void (ptr, ...) @exerror(ptr noundef @.str.23)
  br label %25

25:                                               ; preds = %24, %18
  %26 = load ptr, ptr %9, align 8, !tbaa !10
  call void @llvm.memset.p0.i64(ptr align 8 %10, i8 0, i64 40, i1 false)
  call void @llvm.memcpy.p0.p0.i64(ptr align 8 %26, ptr align 8 %10, i64 40, i1 false), !tbaa.struct !81
  %27 = load ptr, ptr %9, align 8, !tbaa !10
  %28 = getelementptr inbounds nuw %struct.Exassoc_t, ptr %27, i32 0, i32 1
  call void @llvm.memcpy.p0.p0.i64(ptr align 8 %28, ptr align 8 %5, i64 8, i1 false), !tbaa.struct !34
  %29 = load ptr, ptr %7, align 8, !tbaa !84
  %30 = getelementptr inbounds nuw %struct.dt_s_, ptr %29, i32 0, i32 0
  %31 = load ptr, ptr %30, align 8, !tbaa !61
  %32 = load ptr, ptr %7, align 8, !tbaa !84
  %33 = load ptr, ptr %9, align 8, !tbaa !10
  %34 = call ptr %31(ptr noundef %32, ptr noundef %33, i32 noundef 1)
  br label %35

35:                                               ; preds = %25, %4
  %36 = load ptr, ptr %8, align 8, !tbaa !42
  %37 = load ptr, ptr %9, align 8, !tbaa !10
  %38 = getelementptr inbounds nuw %struct.Exassoc_t, ptr %37, i32 0, i32 2
  store ptr %36, ptr %38, align 8, !tbaa !11
  call void @llvm.lifetime.end.p0(i64 8, ptr %9) #15
  ret void
}

; Function Attrs: nounwind uwtable
define internal ptr @exsplit(ptr noundef %0, ptr noundef %1, ptr noundef %2) #0 {
  %4 = alloca %union.EX_STYPE, align 8
  %5 = alloca ptr, align 8
  %6 = alloca ptr, align 8
  %7 = alloca ptr, align 8
  %8 = alloca ptr, align 8
  %9 = alloca ptr, align 8
  %10 = alloca ptr, align 8
  %11 = alloca i64, align 8
  %12 = alloca ptr, align 8
  %13 = alloca %union.EX_STYPE, align 8
  %14 = alloca %union.EX_STYPE, align 8
  %15 = alloca i64, align 8
  store ptr %0, ptr %5, align 8, !tbaa !3
  store ptr %1, ptr %6, align 8, !tbaa !8
  store ptr %2, ptr %7, align 8, !tbaa !10
  call void @llvm.lifetime.start.p0(i64 8, ptr %8) #15
  call void @llvm.lifetime.start.p0(i64 8, ptr %9) #15
  call void @llvm.lifetime.start.p0(i64 8, ptr %10) #15
  call void @llvm.lifetime.start.p0(i64 8, ptr %11) #15
  call void @llvm.lifetime.start.p0(i64 8, ptr %12) #15
  %16 = load ptr, ptr %6, align 8, !tbaa !8
  %17 = getelementptr inbounds nuw %struct.Exnode_s, ptr %16, i32 0, i32 4
  %18 = getelementptr inbounds nuw %struct.anon.5, ptr %17, i32 0, i32 0
  %19 = load ptr, ptr %18, align 8, !tbaa !11
  %20 = getelementptr inbounds nuw %struct.Exid_s, ptr %19, i32 0, i32 6
  %21 = load ptr, ptr %20, align 8, !tbaa !60
  store ptr %21, ptr %12, align 8, !tbaa !84
  %22 = load ptr, ptr %5, align 8, !tbaa !3
  %23 = load ptr, ptr %6, align 8, !tbaa !8
  %24 = getelementptr inbounds nuw %struct.Exnode_s, ptr %23, i32 0, i32 4
  %25 = getelementptr inbounds nuw %struct.anon.5, ptr %24, i32 0, i32 1
  %26 = load ptr, ptr %25, align 8, !tbaa !11
  %27 = load ptr, ptr %7, align 8, !tbaa !10
  %28 = call ptr @eval(ptr noundef %22, ptr noundef %26, ptr noundef %27)
  %29 = getelementptr inbounds nuw %union.EX_STYPE, ptr %13, i32 0, i32 0
  store ptr %28, ptr %29, align 8
  %30 = load ptr, ptr %13, align 8, !tbaa !11
  store ptr %30, ptr %8, align 8, !tbaa !42
  %31 = load ptr, ptr %6, align 8, !tbaa !8
  %32 = getelementptr inbounds nuw %struct.Exnode_s, ptr %31, i32 0, i32 4
  %33 = getelementptr inbounds nuw %struct.anon.5, ptr %32, i32 0, i32 2
  %34 = load ptr, ptr %33, align 8, !tbaa !11
  %35 = icmp ne ptr %34, null
  br i1 %35, label %36, label %46

36:                                               ; preds = %3
  %37 = load ptr, ptr %5, align 8, !tbaa !3
  %38 = load ptr, ptr %6, align 8, !tbaa !8
  %39 = getelementptr inbounds nuw %struct.Exnode_s, ptr %38, i32 0, i32 4
  %40 = getelementptr inbounds nuw %struct.anon.5, ptr %39, i32 0, i32 2
  %41 = load ptr, ptr %40, align 8, !tbaa !11
  %42 = load ptr, ptr %7, align 8, !tbaa !10
  %43 = call ptr @eval(ptr noundef %37, ptr noundef %41, ptr noundef %42)
  %44 = getelementptr inbounds nuw %union.EX_STYPE, ptr %14, i32 0, i32 0
  store ptr %43, ptr %44, align 8
  %45 = load ptr, ptr %14, align 8, !tbaa !11
  store ptr %45, ptr %9, align 8, !tbaa !42
  br label %47

46:                                               ; preds = %3
  store ptr @.str.21, ptr %9, align 8, !tbaa !42
  br label %47

47:                                               ; preds = %46, %36
  store i64 0, ptr %4, align 8, !tbaa !11
  br label %48

48:                                               ; preds = %121, %47
  %49 = load ptr, ptr %8, align 8, !tbaa !42
  %50 = load i8, ptr %49, align 1, !tbaa !11
  %51 = icmp ne i8 %50, 0
  br i1 %51, label %52, label %132

52:                                               ; preds = %48
  %53 = load ptr, ptr %8, align 8, !tbaa !42
  %54 = load ptr, ptr %9, align 8, !tbaa !42
  %55 = call i64 @strspn(ptr noundef %53, ptr noundef %54) #18
  store i64 %55, ptr %11, align 8, !tbaa !45
  %56 = load i64, ptr %11, align 8, !tbaa !45
  %57 = icmp ne i64 %56, 0
  br i1 %57, label %58, label %85

58:                                               ; preds = %52
  %59 = load i64, ptr %4, align 8, !tbaa !11
  %60 = icmp eq i64 %59, 0
  br i1 %60, label %61, label %68

61:                                               ; preds = %58
  %62 = load ptr, ptr %5, align 8, !tbaa !3
  %63 = load ptr, ptr %12, align 8, !tbaa !84
  %64 = getelementptr inbounds nuw %union.EX_STYPE, ptr %4, i32 0, i32 0
  %65 = load ptr, ptr %64, align 8
  call void @addItem(ptr noundef %62, ptr noundef %63, ptr %65, ptr noundef @.str.22)
  %66 = load i64, ptr %4, align 8, !tbaa !11
  %67 = add nsw i64 %66, 1
  store i64 %67, ptr %4, align 8, !tbaa !11
  br label %68

68:                                               ; preds = %61, %58
  call void @llvm.lifetime.start.p0(i64 8, ptr %15) #15
  store i64 1, ptr %15, align 8, !tbaa !45
  br label %69

69:                                               ; preds = %81, %68
  %70 = load i64, ptr %15, align 8, !tbaa !45
  %71 = load i64, ptr %11, align 8, !tbaa !45
  %72 = icmp ult i64 %70, %71
  br i1 %72, label %74, label %73

73:                                               ; preds = %69
  call void @llvm.lifetime.end.p0(i64 8, ptr %15) #15
  br label %84

74:                                               ; preds = %69
  %75 = load ptr, ptr %5, align 8, !tbaa !3
  %76 = load ptr, ptr %12, align 8, !tbaa !84
  %77 = getelementptr inbounds nuw %union.EX_STYPE, ptr %4, i32 0, i32 0
  %78 = load ptr, ptr %77, align 8
  call void @addItem(ptr noundef %75, ptr noundef %76, ptr %78, ptr noundef @.str.22)
  %79 = load i64, ptr %4, align 8, !tbaa !11
  %80 = add nsw i64 %79, 1
  store i64 %80, ptr %4, align 8, !tbaa !11
  br label %81

81:                                               ; preds = %74
  %82 = load i64, ptr %15, align 8, !tbaa !45
  %83 = add i64 %82, 1
  store i64 %83, ptr %15, align 8, !tbaa !45
  br label %69, !llvm.loop !85

84:                                               ; preds = %73
  br label %85

85:                                               ; preds = %84, %52
  %86 = load i64, ptr %11, align 8, !tbaa !45
  %87 = load ptr, ptr %8, align 8, !tbaa !42
  %88 = getelementptr inbounds nuw i8, ptr %87, i64 %86
  store ptr %88, ptr %8, align 8, !tbaa !42
  %89 = load ptr, ptr %8, align 8, !tbaa !42
  %90 = load i8, ptr %89, align 1, !tbaa !11
  %91 = sext i8 %90 to i32
  %92 = icmp eq i32 %91, 0
  br i1 %92, label %93, label %100

93:                                               ; preds = %85
  %94 = load ptr, ptr %5, align 8, !tbaa !3
  %95 = load ptr, ptr %12, align 8, !tbaa !84
  %96 = getelementptr inbounds nuw %union.EX_STYPE, ptr %4, i32 0, i32 0
  %97 = load ptr, ptr %96, align 8
  call void @addItem(ptr noundef %94, ptr noundef %95, ptr %97, ptr noundef @.str.22)
  %98 = load i64, ptr %4, align 8, !tbaa !11
  %99 = add nsw i64 %98, 1
  store i64 %99, ptr %4, align 8, !tbaa !11
  br label %132

100:                                              ; preds = %85
  %101 = load ptr, ptr %8, align 8, !tbaa !42
  %102 = load ptr, ptr %9, align 8, !tbaa !42
  %103 = call i64 @strcspn(ptr noundef %101, ptr noundef %102) #18
  store i64 %103, ptr %11, align 8, !tbaa !45
  %104 = load ptr, ptr %5, align 8, !tbaa !3
  %105 = getelementptr inbounds nuw %struct.Expr_s, ptr %104, i32 0, i32 3
  %106 = load ptr, ptr %105, align 8, !tbaa !40
  %107 = load i64, ptr %11, align 8, !tbaa !45
  %108 = add i64 %107, 1
  %109 = call ptr @vmalloc(ptr noundef %106, i64 noundef %108)
  store ptr %109, ptr %10, align 8, !tbaa !42
  %110 = load ptr, ptr %10, align 8, !tbaa !42
  %111 = icmp eq ptr %110, null
  br i1 %111, label %112, label %114

112:                                              ; preds = %100
  %113 = call ptr @exnospace()
  store ptr %113, ptr %10, align 8, !tbaa !42
  br label %121

114:                                              ; preds = %100
  %115 = load ptr, ptr %10, align 8, !tbaa !42
  %116 = load ptr, ptr %8, align 8, !tbaa !42
  %117 = load i64, ptr %11, align 8, !tbaa !45
  call void @llvm.memcpy.p0.p0.i64(ptr align 1 %115, ptr align 1 %116, i64 %117, i1 false)
  %118 = load ptr, ptr %10, align 8, !tbaa !42
  %119 = load i64, ptr %11, align 8, !tbaa !45
  %120 = getelementptr inbounds nuw i8, ptr %118, i64 %119
  store i8 0, ptr %120, align 1, !tbaa !11
  br label %121

121:                                              ; preds = %114, %112
  %122 = load ptr, ptr %5, align 8, !tbaa !3
  %123 = load ptr, ptr %12, align 8, !tbaa !84
  %124 = load ptr, ptr %10, align 8, !tbaa !42
  %125 = getelementptr inbounds nuw %union.EX_STYPE, ptr %4, i32 0, i32 0
  %126 = load ptr, ptr %125, align 8
  call void @addItem(ptr noundef %122, ptr noundef %123, ptr %126, ptr noundef %124)
  %127 = load i64, ptr %4, align 8, !tbaa !11
  %128 = add nsw i64 %127, 1
  store i64 %128, ptr %4, align 8, !tbaa !11
  %129 = load i64, ptr %11, align 8, !tbaa !45
  %130 = load ptr, ptr %8, align 8, !tbaa !42
  %131 = getelementptr inbounds nuw i8, ptr %130, i64 %129
  store ptr %131, ptr %8, align 8, !tbaa !42
  br label %48, !llvm.loop !86

132:                                              ; preds = %93, %48
  call void @llvm.lifetime.end.p0(i64 8, ptr %12) #15
  call void @llvm.lifetime.end.p0(i64 8, ptr %11) #15
  call void @llvm.lifetime.end.p0(i64 8, ptr %10) #15
  call void @llvm.lifetime.end.p0(i64 8, ptr %9) #15
  call void @llvm.lifetime.end.p0(i64 8, ptr %8) #15
  %133 = getelementptr inbounds nuw %union.EX_STYPE, ptr %4, i32 0, i32 0
  %134 = load ptr, ptr %133, align 8
  ret ptr %134
}