; Function Attrs: nounwind uwtable
define internal fastcc ptr @exsplit(ptr noundef %0, ptr noundef nonnull readonly captures(none) %1, ptr noundef %2) unnamed_addr #0 {
  %4 = alloca %union.EX_STYPE, align 8
  %5 = alloca %union.EX_STYPE, align 8
  %6 = alloca %union.EX_STYPE, align 8
  %7 = alloca %union.EX_STYPE, align 8
  %8 = getelementptr inbounds nuw i8, ptr %1, i64 32
  %9 = load ptr, ptr %8, align 8, !tbaa !3
  %10 = getelementptr inbounds nuw i8, ptr %9, i64 56
  %11 = load ptr, ptr %10, align 8, !tbaa !53
  %12 = getelementptr inbounds nuw i8, ptr %1, i64 40
  %13 = load ptr, ptr %12, align 8, !tbaa !3
  %14 = tail call fastcc ptr @eval(ptr noundef %0, ptr noundef %13, ptr noundef %2)
  %15 = getelementptr inbounds nuw i8, ptr %1, i64 48
  %16 = load ptr, ptr %15, align 8, !tbaa !3
  %.not = icmp eq ptr %16, null
  br i1 %.not, label %19, label %17

17:                                               ; preds = %3
  %18 = tail call fastcc ptr @eval(ptr noundef %0, ptr noundef nonnull %16, ptr noundef %2)
  br label %19

19:                                               ; preds = %3, %17
  %.049 = phi ptr [ %18, %17 ], [ @.str.21, %3 ]
  %20 = load i8, ptr %14, align 1, !tbaa !3
  %.not5573 = icmp eq i8 %20, 0
  br i1 %.not5573, label %.loopexit69, label %.lr.ph76

.lr.ph76:                                         ; preds = %19
  %21 = getelementptr inbounds nuw i8, ptr %0, i64 96
  br label %22

22:                                               ; preds = %.lr.ph76, %addItem.exit68
  %.sroa.039.075 = phi ptr [ null, %.lr.ph76 ], [ %100, %addItem.exit68 ]
  %.04874 = phi ptr [ %14, %.lr.ph76 ], [ %101, %addItem.exit68 ]
  %23 = call i64 @strspn(ptr noundef nonnull %.04874, ptr noundef %.049) #30
  %.not56 = icmp eq i64 %23, 0
  br i1 %.not56, label %.loopexit, label %24

24:                                               ; preds = %22
  %25 = icmp eq ptr %.sroa.039.075, null
  br i1 %25, label %26, label %39

26:                                               ; preds = %24
  call void @llvm.lifetime.start.p0(i64 8, ptr nonnull %7)
  store ptr null, ptr %7, align 8
  %27 = load ptr, ptr %11, align 8, !tbaa !54
  %28 = call ptr %27(ptr noundef nonnull %11, ptr noundef nonnull %7, i32 noundef 512) #25
  %.not.i = icmp eq ptr %28, null
  br i1 %.not.i, label %29, label %addItem.exit

29:                                               ; preds = %26
  %30 = load ptr, ptr %21, align 8, !tbaa !36
  %31 = call ptr @vmalloc(ptr noundef %30, i64 noundef 40) #25
  %.not11.i = icmp eq ptr %31, null
  br i1 %.not11.i, label %32, label %33

32:                                               ; preds = %29
  call void (ptr, ...) @exerror(ptr noundef nonnull @.str.23) #25
  br label %33

33:                                               ; preds = %32, %29
  call void @llvm.memset.p0.i64(ptr noundef nonnull align 8 dereferenceable(40) %31, i8 0, i64 40, i1 false)
  %34 = getelementptr inbounds nuw i8, ptr %31, i64 16
  %35 = load i64, ptr %7, align 8, !tbaa !3
  store i64 %35, ptr %34, align 8, !tbaa !3
  %36 = load ptr, ptr %11, align 8, !tbaa !54
  %37 = call ptr %36(ptr noundef nonnull %11, ptr noundef nonnull %31, i32 noundef 1) #25
  br label %addItem.exit

addItem.exit:                                     ; preds = %26, %33
  %.0.i = phi ptr [ %28, %26 ], [ %31, %33 ]
  %38 = getelementptr inbounds nuw i8, ptr %.0.i, i64 24
  store ptr @.str.22, ptr %38, align 8, !tbaa !3
  call void @llvm.lifetime.end.p0(i64 8, ptr nonnull %7)
  br label %39

39:                                               ; preds = %addItem.exit, %24
  %.sroa.039.3 = phi ptr [ inttoptr (i64 1 to ptr), %addItem.exit ], [ %.sroa.039.075, %24 ]
  %.not78 = icmp eq i64 %23, 1
  br i1 %.not78, label %.loopexit, label %.lr.ph

.lr.ph:                                           ; preds = %39, %addItem.exit60
  %.072 = phi i64 [ %55, %addItem.exit60 ], [ 1, %39 ]
  %.sroa.039.471 = phi ptr [ %54, %addItem.exit60 ], [ %.sroa.039.3, %39 ]
  call void @llvm.lifetime.start.p0(i64 8, ptr nonnull %6)
  store ptr %.sroa.039.471, ptr %6, align 8
  %40 = load ptr, ptr %11, align 8, !tbaa !54
  %41 = call ptr %40(ptr noundef nonnull %11, ptr noundef nonnull %6, i32 noundef 512) #25
  %.not.i57 = icmp eq ptr %41, null
  br i1 %.not.i57, label %42, label %addItem.exit60

42:                                               ; preds = %.lr.ph
  %43 = load ptr, ptr %21, align 8, !tbaa !36
  %44 = call ptr @vmalloc(ptr noundef %43, i64 noundef 40) #25
  %.not11.i59 = icmp eq ptr %44, null
  br i1 %.not11.i59, label %45, label %46

45:                                               ; preds = %42
  call void (ptr, ...) @exerror(ptr noundef nonnull @.str.23) #25
  br label %46

46:                                               ; preds = %45, %42
  call void @llvm.memset.p0.i64(ptr noundef nonnull align 8 dereferenceable(40) %44, i8 0, i64 40, i1 false)
  %47 = getelementptr inbounds nuw i8, ptr %44, i64 16
  %48 = load i64, ptr %6, align 8, !tbaa !3
  store i64 %48, ptr %47, align 8, !tbaa !3
  %49 = load ptr, ptr %11, align 8, !tbaa !54
  %50 = call ptr %49(ptr noundef nonnull %11, ptr noundef nonnull %44, i32 noundef 1) #25
  br label %addItem.exit60

addItem.exit60:                                   ; preds = %.lr.ph, %46
  %.0.i58 = phi ptr [ %41, %.lr.ph ], [ %44, %46 ]
  %51 = getelementptr inbounds nuw i8, ptr %.0.i58, i64 24
  store ptr @.str.22, ptr %51, align 8, !tbaa !3
  call void @llvm.lifetime.end.p0(i64 8, ptr nonnull %6)
  %52 = ptrtoint ptr %.sroa.039.471 to i64
  %53 = add nsw i64 %52, 1
  %54 = inttoptr i64 %53 to ptr
  %55 = add nuw i64 %.072, 1
  %exitcond.not = icmp eq i64 %55, %23
  br i1 %exitcond.not, label %.loopexit, label %.lr.ph, !llvm.loop !77

.loopexit:                                        ; preds = %addItem.exit60, %39, %22
  %.sroa.039.2 = phi ptr [ %.sroa.039.075, %22 ], [ %.sroa.039.3, %39 ], [ %54, %addItem.exit60 ]
  %56 = getelementptr inbounds nuw i8, ptr %.04874, i64 %23
  %57 = load i8, ptr %56, align 1, !tbaa !3
  %58 = icmp eq i8 %57, 0
  br i1 %58, label %59, label %75

59:                                               ; preds = %.loopexit
  call void @llvm.lifetime.start.p0(i64 8, ptr nonnull %5)
  store ptr %.sroa.039.2, ptr %5, align 8
  %60 = load ptr, ptr %11, align 8, !tbaa !54
  %61 = call ptr %60(ptr noundef nonnull %11, ptr noundef nonnull %5, i32 noundef 512) #25
  %.not.i61 = icmp eq ptr %61, null
  br i1 %.not.i61, label %62, label %addItem.exit64

62:                                               ; preds = %59
  %63 = load ptr, ptr %21, align 8, !tbaa !36
  %64 = call ptr @vmalloc(ptr noundef %63, i64 noundef 40) #25
  %.not11.i63 = icmp eq ptr %64, null
  br i1 %.not11.i63, label %65, label %66

65:                                               ; preds = %62
  call void (ptr, ...) @exerror(ptr noundef nonnull @.str.23) #25
  br label %66

66:                                               ; preds = %65, %62
  call void @llvm.memset.p0.i64(ptr noundef nonnull align 8 dereferenceable(40) %64, i8 0, i64 40, i1 false)
  %67 = getelementptr inbounds nuw i8, ptr %64, i64 16
  %68 = load i64, ptr %5, align 8, !tbaa !3
  store i64 %68, ptr %67, align 8, !tbaa !3
  %69 = load ptr, ptr %11, align 8, !tbaa !54
  %70 = call ptr %69(ptr noundef nonnull %11, ptr noundef nonnull %64, i32 noundef 1) #25
  br label %addItem.exit64

addItem.exit64:                                   ; preds = %59, %66
  %.0.i62 = phi ptr [ %61, %59 ], [ %64, %66 ]
  %71 = getelementptr inbounds nuw i8, ptr %.0.i62, i64 24
  store ptr @.str.22, ptr %71, align 8, !tbaa !3
  call void @llvm.lifetime.end.p0(i64 8, ptr nonnull %5)
  %72 = ptrtoint ptr %.sroa.039.2 to i64
  %73 = add nsw i64 %72, 1
  %74 = inttoptr i64 %73 to ptr
  br label %.loopexit69

75:                                               ; preds = %.loopexit
  %76 = call i64 @strcspn(ptr noundef nonnull %56, ptr noundef %.049) #30
  %77 = load ptr, ptr %21, align 8, !tbaa !36
  %78 = add i64 %76, 1
  %79 = call ptr @vmalloc(ptr noundef %77, i64 noundef %78) #25
  %80 = icmp eq ptr %79, null
  br i1 %80, label %81, label %83

81:                                               ; preds = %75
  %82 = call ptr @exnospace() #25
  br label %85

83:                                               ; preds = %75
  call void @llvm.memcpy.p0.p0.i64(ptr nonnull align 1 %79, ptr nonnull align 1 %56, i64 %76, i1 false)
  %84 = getelementptr inbounds nuw i8, ptr %79, i64 %76
  store i8 0, ptr %84, align 1, !tbaa !3
  br label %85

85:                                               ; preds = %83, %81
  %.050 = phi ptr [ %82, %81 ], [ %79, %83 ]
  call void @llvm.lifetime.start.p0(i64 8, ptr nonnull %4)
  store ptr %.sroa.039.2, ptr %4, align 8
  %86 = load ptr, ptr %11, align 8, !tbaa !54
  %87 = call ptr %86(ptr noundef nonnull %11, ptr noundef nonnull %4, i32 noundef 512) #25
  %.not.i65 = icmp eq ptr %87, null
  br i1 %.not.i65, label %88, label %addItem.exit68

88:                                               ; preds = %85
  %89 = load ptr, ptr %21, align 8, !tbaa !36
  %90 = call ptr @vmalloc(ptr noundef %89, i64 noundef 40) #25
  %.not11.i67 = icmp eq ptr %90, null
  br i1 %.not11.i67, label %91, label %92

91:                                               ; preds = %88
  call void (ptr, ...) @exerror(ptr noundef nonnull @.str.23) #25
  br label %92

92:                                               ; preds = %91, %88
  call void @llvm.memset.p0.i64(ptr noundef nonnull align 8 dereferenceable(40) %90, i8 0, i64 40, i1 false)
  %93 = getelementptr inbounds nuw i8, ptr %90, i64 16
  %94 = load i64, ptr %4, align 8, !tbaa !3
  store i64 %94, ptr %93, align 8, !tbaa !3
  %95 = load ptr, ptr %11, align 8, !tbaa !54
  %96 = call ptr %95(ptr noundef nonnull %11, ptr noundef nonnull %90, i32 noundef 1) #25
  br label %addItem.exit68

addItem.exit68:                                   ; preds = %85, %92
  %.0.i66 = phi ptr [ %87, %85 ], [ %90, %92 ]
  %97 = getelementptr inbounds nuw i8, ptr %.0.i66, i64 24
  store ptr %.050, ptr %97, align 8, !tbaa !3
  call void @llvm.lifetime.end.p0(i64 8, ptr nonnull %4)
  %98 = ptrtoint ptr %.sroa.039.2 to i64
  %99 = add nsw i64 %98, 1
  %100 = inttoptr i64 %99 to ptr
  %101 = getelementptr inbounds nuw i8, ptr %56, i64 %76
  %102 = load i8, ptr %101, align 1, !tbaa !3
  %.not55 = icmp eq i8 %102, 0
  br i1 %.not55, label %.loopexit69, label %22, !llvm.loop !78

.loopexit69:                                      ; preds = %addItem.exit68, %19, %addItem.exit64
  %.sroa.039.1 = phi ptr [ %74, %addItem.exit64 ], [ null, %19 ], [ %100, %addItem.exit68 ]
  ret ptr %.sroa.039.1
}